target datalayout = "e-m:e-p270:32:32-p271:32:32-p272:64:64-i64:64-i128:128-f80:128-n8:16:32:64-S128"
target triple = "x86_64-pc-linux-gnu"

%struct.AVFormatContext = type { ptr, ptr, ptr, ptr, ptr, i32, i32, ptr, i32, ptr, i32, ptr, ptr, i64, i64, i64, i32, i32, i32, i64, i64, ptr, i32, i32, ptr, i32, i32, i32, i32, ptr, i64, i32, i32, %struct.AVIOInterruptCB, i32, i32, i32, i32, i64, i32, i32, i32, i32, i32, i32, i32, i32, i32, i32, i32, i32, i64, i32, i32, i32, i32, i32, ptr, ptr, ptr, ptr, i32, ptr, ptr, ptr, ptr, i32, ptr, ptr, i64, ptr, ptr, ptr, i64 }
%struct.AVIOInterruptCB = type { ptr, ptr }
%struct.AVPacket = type { ptr, i64, i64, ptr, i32, i32, i32, ptr, i32, i64, i64, ptr, ptr, %struct.AVRational }
%struct.AVRational = type { i32, i32 }
%struct.IEC61937Context = type { ptr, i32, i32, i32, ptr, i32, ptr, i32, i32, i32, [2 x ptr], i32, i32, i32, i32, i32, i16, i32, i32, i32, i32, i32, ptr }

@.str.29 = private unnamed_addr constant [21 x i8] c"bitrate is too high\0A\00", align 1
@.str.30 = private unnamed_addr constant [30 x i8] c"type=%x len=%i pkt_offset=%i\0A\00", align 1

; Function Attrs: alwaysinline nounwind uwtable
define internal void @spdif_put_16(ptr noundef %0, ptr noundef %1, i32 noundef %2) #6 {
  %4 = alloca ptr, align 8
  %5 = alloca ptr, align 8
  %6 = alloca i32, align 4
  store ptr %0, ptr %4, align 8, !tbaa !26
  store ptr %1, ptr %5, align 8, !tbaa !80
  store i32 %2, ptr %6, align 4, !tbaa !44
  %7 = load ptr, ptr %4, align 8, !tbaa !26
  %8 = getelementptr inbounds nuw %struct.IEC61937Context, ptr %7, i32 0, i32 21
  %9 = load i32, ptr %8, align 8, !tbaa !60
  %10 = and i32 %9, 1
  %11 = icmp ne i32 %10, 0
  br i1 %11, label %12, label %15

12:                                               ; preds = %3
  %13 = load ptr, ptr %5, align 8, !tbaa !80
  %14 = load i32, ptr %6, align 4, !tbaa !44
  call void @avio_wb16(ptr noundef %13, i32 noundef %14)
  br label %18

15:                                               ; preds = %3
  %16 = load ptr, ptr %5, align 8, !tbaa !80
  %17 = load i32, ptr %6, align 4, !tbaa !44
  call void @avio_wl16(ptr noundef %16, i32 noundef %17)
  br label %18

18:                                               ; preds = %15, %12
  ret void
}

; Function Attrs: nounwind uwtable
define internal i32 @spdif_write_packet(ptr noundef %0, ptr noundef %1) #0 {
  %3 = alloca i32, align 4
  %4 = alloca ptr, align 8
  %5 = alloca ptr, align 8
  %6 = alloca ptr, align 8
  %7 = alloca i32, align 4
  %8 = alloca i32, align 4
  %9 = alloca i32, align 4
  store ptr %0, ptr %4, align 8, !tbaa !4
  store ptr %1, ptr %5, align 8, !tbaa !48
  call void @llvm.lifetime.start.p0(i64 8, ptr %6) #7
  %10 = load ptr, ptr %4, align 8, !tbaa !4
  %11 = getelementptr inbounds nuw %struct.AVFormatContext, ptr %10, i32 0, i32 3
  %12 = load ptr, ptr %11, align 8, !tbaa !9
  store ptr %12, ptr %6, align 8, !tbaa !26
  call void @llvm.lifetime.start.p0(i64 4, ptr %7) #7
  call void @llvm.lifetime.start.p0(i64 4, ptr %8) #7
  %13 = load ptr, ptr %5, align 8, !tbaa !48
  %14 = getelementptr inbounds nuw %struct.AVPacket, ptr %13, i32 0, i32 3
  %15 = load ptr, ptr %14, align 8, !tbaa !50
  %16 = load ptr, ptr %6, align 8, !tbaa !26
  %17 = getelementptr inbounds nuw %struct.IEC61937Context, ptr %16, i32 0, i32 6
  store ptr %15, ptr %17, align 8, !tbaa !51
  %18 = load ptr, ptr %5, align 8, !tbaa !48
  %19 = getelementptr inbounds nuw %struct.AVPacket, ptr %18, i32 0, i32 4
  %20 = load i32, ptr %19, align 8, !tbaa !52
  %21 = load ptr, ptr %6, align 8, !tbaa !26
  %22 = getelementptr inbounds nuw %struct.IEC61937Context, ptr %21, i32 0, i32 7
  store i32 %20, ptr %22, align 8, !tbaa !53
  %23 = load ptr, ptr %5, align 8, !tbaa !48
  %24 = getelementptr inbounds nuw %struct.AVPacket, ptr %23, i32 0, i32 4
  %25 = load i32, ptr %24, align 8, !tbaa !52
  %26 = add nsw i32 %25, 2
  %27 = sub nsw i32 %26, 1
  %28 = and i32 %27, -2
  %29 = shl i32 %28, 3
  %30 = load ptr, ptr %6, align 8, !tbaa !26
  %31 = getelementptr inbounds nuw %struct.IEC61937Context, ptr %30, i32 0, i32 2
  store i32 %29, ptr %31, align 4, !tbaa !54
  %32 = load ptr, ptr %6, align 8, !tbaa !26
  %33 = getelementptr inbounds nuw %struct.IEC61937Context, ptr %32, i32 0, i32 8
  store i32 1, ptr %33, align 4, !tbaa !55
  %34 = load ptr, ptr %6, align 8, !tbaa !26
  %35 = getelementptr inbounds nuw %struct.IEC61937Context, ptr %34, i32 0, i32 9
  store i32 0, ptr %35, align 8, !tbaa !56
  %36 = load ptr, ptr %6, align 8, !tbaa !26
  %37 = getelementptr inbounds nuw %struct.IEC61937Context, ptr %36, i32 0, i32 22
  %38 = load ptr, ptr %37, align 8, !tbaa !41
  %39 = load ptr, ptr %4, align 8, !tbaa !4
  %40 = load ptr, ptr %5, align 8, !tbaa !48
  %41 = call i32 %38(ptr noundef %39, ptr noundef %40)
  store i32 %41, ptr %7, align 4, !tbaa !44
  %42 = load i32, ptr %7, align 4, !tbaa !44
  %43 = icmp slt i32 %42, 0
  br i1 %43, label %44, label %46

44:                                               ; preds = %2
  %45 = load i32, ptr %7, align 4, !tbaa !44
  store i32 %45, ptr %3, align 4
  store i32 1, ptr %9, align 4
  br label %194

46:                                               ; preds = %2
  %47 = load ptr, ptr %6, align 8, !tbaa !26
  %48 = getelementptr inbounds nuw %struct.IEC61937Context, ptr %47, i32 0, i32 3
  %49 = load i32, ptr %48, align 8, !tbaa !57
  %50 = icmp ne i32 %49, 0
  br i1 %50, label %52, label %51

51:                                               ; preds = %46
  store i32 0, ptr %3, align 4
  store i32 1, ptr %9, align 4
  br label %194

52:                                               ; preds = %46
  %53 = load ptr, ptr %6, align 8, !tbaa !26
  %54 = getelementptr inbounds nuw %struct.IEC61937Context, ptr %53, i32 0, i32 3
  %55 = load i32, ptr %54, align 8, !tbaa !57
  %56 = load ptr, ptr %6, align 8, !tbaa !26
  %57 = getelementptr inbounds nuw %struct.IEC61937Context, ptr %56, i32 0, i32 8
  %58 = load i32, ptr %57, align 4, !tbaa !55
  %59 = mul nsw i32 %58, 8
  %60 = sub nsw i32 %55, %59
  %61 = load ptr, ptr %6, align 8, !tbaa !26
  %62 = getelementptr inbounds nuw %struct.IEC61937Context, ptr %61, i32 0, i32 7
  %63 = load i32, ptr %62, align 8, !tbaa !53
  %64 = sub nsw i32 %60, %63
  %65 = and i32 %64, -2
  store i32 %65, ptr %8, align 4, !tbaa !44
  %66 = load i32, ptr %8, align 4, !tbaa !44
  %67 = icmp slt i32 %66, 0
  br i1 %67, label %68, label %70

68:                                               ; preds = %52
  %69 = load ptr, ptr %4, align 8, !tbaa !4
  call void (ptr, i32, ptr, ...) @av_log(ptr noundef %69, i32 noundef 16, ptr noundef @.str.29)
  store i32 -22, ptr %3, align 4
  store i32 1, ptr %9, align 4
  br label %194

70:                                               ; preds = %52
  %71 = load ptr, ptr %6, align 8, !tbaa !26
  %72 = getelementptr inbounds nuw %struct.IEC61937Context, ptr %71, i32 0, i32 8
  %73 = load i32, ptr %72, align 4, !tbaa !55
  %74 = icmp ne i32 %73, 0
  br i1 %74, label %75, label %98

75:                                               ; preds = %70
  %76 = load ptr, ptr %6, align 8, !tbaa !26
  %77 = load ptr, ptr %4, align 8, !tbaa !4
  %78 = getelementptr inbounds nuw %struct.AVFormatContext, ptr %77, i32 0, i32 4
  %79 = load ptr, ptr %78, align 8, !tbaa !58
  call void @spdif_put_16(ptr noundef %76, ptr noundef %79, i32 noundef 63602)
  %80 = load ptr, ptr %6, align 8, !tbaa !26
  %81 = load ptr, ptr %4, align 8, !tbaa !4
  %82 = getelementptr inbounds nuw %struct.AVFormatContext, ptr %81, i32 0, i32 4
  %83 = load ptr, ptr %82, align 8, !tbaa !58
  call void @spdif_put_16(ptr noundef %80, ptr noundef %83, i32 noundef 19999)
  %84 = load ptr, ptr %6, align 8, !tbaa !26
  %85 = load ptr, ptr %4, align 8, !tbaa !4
  %86 = getelementptr inbounds nuw %struct.AVFormatContext, ptr %85, i32 0, i32 4
  %87 = load ptr, ptr %86, align 8, !tbaa !58
  %88 = load ptr, ptr %6, align 8, !tbaa !26
  %89 = getelementptr inbounds nuw %struct.IEC61937Context, ptr %88, i32 0, i32 1
  %90 = load i32, ptr %89, align 8, !tbaa !59
  call void @spdif_put_16(ptr noundef %84, ptr noundef %87, i32 noundef %90)
  %91 = load ptr, ptr %6, align 8, !tbaa !26
  %92 = load ptr, ptr %4, align 8, !tbaa !4
  %93 = getelementptr inbounds nuw %struct.AVFormatContext, ptr %92, i32 0, i32 4
  %94 = load ptr, ptr %93, align 8, !tbaa !58
  %95 = load ptr, ptr %6, align 8, !tbaa !26
  %96 = getelementptr inbounds nuw %struct.IEC61937Context, ptr %95, i32 0, i32 2
  %97 = load i32, ptr %96, align 4, !tbaa !54
  call void @spdif_put_16(ptr noundef %91, ptr noundef %94, i32 noundef %97)
  br label %98

98:                                               ; preds = %75, %70
  %99 = load ptr, ptr %6, align 8, !tbaa !26
  %100 = getelementptr inbounds nuw %struct.IEC61937Context, ptr %99, i32 0, i32 9
  %101 = load i32, ptr %100, align 8, !tbaa !56
  %102 = load ptr, ptr %6, align 8, !tbaa !26
  %103 = getelementptr inbounds nuw %struct.IEC61937Context, ptr %102, i32 0, i32 21
  %104 = load i32, ptr %103, align 8, !tbaa !60
  %105 = and i32 %104, 1
  %106 = xor i32 %101, %105
  %107 = icmp ne i32 %106, 0
  br i1 %107, label %108, label %119

108:                                              ; preds = %98
  %109 = load ptr, ptr %4, align 8, !tbaa !4
  %110 = getelementptr inbounds nuw %struct.AVFormatContext, ptr %109, i32 0, i32 4
  %111 = load ptr, ptr %110, align 8, !tbaa !58
  %112 = load ptr, ptr %6, align 8, !tbaa !26
  %113 = getelementptr inbounds nuw %struct.IEC61937Context, ptr %112, i32 0, i32 6
  %114 = load ptr, ptr %113, align 8, !tbaa !51
  %115 = load ptr, ptr %6, align 8, !tbaa !26
  %116 = getelementptr inbounds nuw %struct.IEC61937Context, ptr %115, i32 0, i32 7
  %117 = load i32, ptr %116, align 8, !tbaa !53
  %118 = and i32 %117, -2
  call void @avio_write(ptr noundef %111, ptr noundef %114, i32 noundef %118)
  br label %155

119:                                              ; preds = %98
  %120 = load ptr, ptr %6, align 8, !tbaa !26
  %121 = getelementptr inbounds nuw %struct.IEC61937Context, ptr %120, i32 0, i32 4
  %122 = load ptr, ptr %6, align 8, !tbaa !26
  %123 = getelementptr inbounds nuw %struct.IEC61937Context, ptr %122, i32 0, i32 5
  %124 = load ptr, ptr %6, align 8, !tbaa !26
  %125 = getelementptr inbounds nuw %struct.IEC61937Context, ptr %124, i32 0, i32 7
  %126 = load i32, ptr %125, align 8, !tbaa !53
  %127 = add nsw i32 %126, 64
  %128 = sext i32 %127 to i64
  call void @av_fast_malloc(ptr noundef %121, ptr noundef %123, i64 noundef %128)
  %129 = load ptr, ptr %6, align 8, !tbaa !26
  %130 = getelementptr inbounds nuw %struct.IEC61937Context, ptr %129, i32 0, i32 4
  %131 = load ptr, ptr %130, align 8, !tbaa !61
  %132 = icmp ne ptr %131, null
  br i1 %132, label %134, label %133

133:                                              ; preds = %119
  store i32 -12, ptr %3, align 4
  store i32 1, ptr %9, align 4
  br label %194

134:                                              ; preds = %119
  %135 = load ptr, ptr %6, align 8, !tbaa !26
  %136 = getelementptr inbounds nuw %struct.IEC61937Context, ptr %135, i32 0, i32 4
  %137 = load ptr, ptr %136, align 8, !tbaa !61
  %138 = load ptr, ptr %6, align 8, !tbaa !26
  %139 = getelementptr inbounds nuw %struct.IEC61937Context, ptr %138, i32 0, i32 6
  %140 = load ptr, ptr %139, align 8, !tbaa !51
  %141 = load ptr, ptr %6, align 8, !tbaa !26
  %142 = getelementptr inbounds nuw %struct.IEC61937Context, ptr %141, i32 0, i32 7
  %143 = load i32, ptr %142, align 8, !tbaa !53
  %144 = ashr i32 %143, 1
  call void @ff_spdif_bswap_buf16(ptr noundef %137, ptr noundef %140, i32 noundef %144)
  %145 = load ptr, ptr %4, align 8, !tbaa !4
  %146 = getelementptr inbounds nuw %struct.AVFormatContext, ptr %145, i32 0, i32 4
  %147 = load ptr, ptr %146, align 8, !tbaa !58
  %148 = load ptr, ptr %6, align 8, !tbaa !26
  %149 = getelementptr inbounds nuw %struct.IEC61937Context, ptr %148, i32 0, i32 4
  %150 = load ptr, ptr %149, align 8, !tbaa !61
  %151 = load ptr, ptr %6, align 8, !tbaa !26
  %152 = getelementptr inbounds nuw %struct.IEC61937Context, ptr %151, i32 0, i32 7
  %153 = load i32, ptr %152, align 8, !tbaa !53
  %154 = and i32 %153, -2
  call void @avio_write(ptr noundef %147, ptr noundef %150, i32 noundef %154)
  br label %155

155:                                              ; preds = %134, %108
  %156 = load ptr, ptr %6, align 8, !tbaa !26
  %157 = getelementptr inbounds nuw %struct.IEC61937Context, ptr %156, i32 0, i32 7
  %158 = load i32, ptr %157, align 8, !tbaa !53
  %159 = and i32 %158, 1
  %160 = icmp ne i32 %159, 0
  br i1 %160, label %161, label %178

161:                                              ; preds = %155
  %162 = load ptr, ptr %6, align 8, !tbaa !26
  %163 = load ptr, ptr %4, align 8, !tbaa !4
  %164 = getelementptr inbounds nuw %struct.AVFormatContext, ptr %163, i32 0, i32 4
  %165 = load ptr, ptr %164, align 8, !tbaa !58
  %166 = load ptr, ptr %6, align 8, !tbaa !26
  %167 = getelementptr inbounds nuw %struct.IEC61937Context, ptr %166, i32 0, i32 6
  %168 = load ptr, ptr %167, align 8, !tbaa !51
  %169 = load ptr, ptr %6, align 8, !tbaa !26
  %170 = getelementptr inbounds nuw %struct.IEC61937Context, ptr %169, i32 0, i32 7
  %171 = load i32, ptr %170, align 8, !tbaa !53
  %172 = sub nsw i32 %171, 1
  %173 = sext i32 %172 to i64
  %174 = getelementptr inbounds i8, ptr %168, i64 %173
  %175 = load i8, ptr %174, align 1, !tbaa !62
  %176 = zext i8 %175 to i32
  %177 = shl i32 %176, 8
  call void @spdif_put_16(ptr noundef %162, ptr noundef %165, i32 noundef %177)
  br label %178

178:                                              ; preds = %161, %155
  %179 = load ptr, ptr %4, align 8, !tbaa !4
  %180 = getelementptr inbounds nuw %struct.AVFormatContext, ptr %179, i32 0, i32 4
  %181 = load ptr, ptr %180, align 8, !tbaa !58
  %182 = load i32, ptr %8, align 4, !tbaa !44
  %183 = sext i32 %182 to i64
  call void @ffio_fill(ptr noundef %181, i32 noundef 0, i64 noundef %183)
  %184 = load ptr, ptr %4, align 8, !tbaa !4
  %185 = load ptr, ptr %6, align 8, !tbaa !26
  %186 = getelementptr inbounds nuw %struct.IEC61937Context, ptr %185, i32 0, i32 1
  %187 = load i32, ptr %186, align 8, !tbaa !59
  %188 = load ptr, ptr %6, align 8, !tbaa !26
  %189 = getelementptr inbounds nuw %struct.IEC61937Context, ptr %188, i32 0, i32 7
  %190 = load i32, ptr %189, align 8, !tbaa !53
  %191 = load ptr, ptr %6, align 8, !tbaa !26
  %192 = getelementptr inbounds nuw %struct.IEC61937Context, ptr %191, i32 0, i32 3
  %193 = load i32, ptr %192, align 8, !tbaa !57
  call void (ptr, i32, ptr, ...) @av_log(ptr noundef %184, i32 noundef 48, ptr noundef @.str.30, i32 noundef %187, i32 noundef %190, i32 noundef %193)
  store i32 0, ptr %3, align 4
  store i32 1, ptr %9, align 4
  br label %194

194:                                              ; preds = %178, %133, %68, %51, %44
  call void @llvm.lifetime.end.p0(i64 4, ptr %8) #7
  call void @llvm.lifetime.end.p0(i64 4, ptr %7) #7
  call void @llvm.lifetime.end.p0(i64 8, ptr %6) #7
  %195 = load i32, ptr %3, align 4
  ret i32 %195
}