; Function Attrs: nounwind uwtable
define internal range(i32 -2147483648, 1) i32 @spdif_write_packet(ptr noundef %0, ptr noundef %1) #0 {
  %3 = getelementptr inbounds nuw i8, ptr %0, i64 24
  %4 = load ptr, ptr %3, align 8, !tbaa !4
  %5 = getelementptr inbounds nuw i8, ptr %1, i64 24
  %6 = load ptr, ptr %5, align 8, !tbaa !41
  %7 = getelementptr inbounds nuw i8, ptr %4, i64 40
  store ptr %6, ptr %7, align 8, !tbaa !42
  %8 = getelementptr inbounds nuw i8, ptr %1, i64 32
  %9 = load i32, ptr %8, align 8, !tbaa !43
  %10 = getelementptr inbounds nuw i8, ptr %4, i64 48
  store i32 %9, ptr %10, align 8, !tbaa !44
  %11 = shl i32 %9, 3
  %12 = add i32 %11, 8
  %13 = and i32 %12, -16
  %14 = getelementptr inbounds nuw i8, ptr %4, i64 12
  store i32 %13, ptr %14, align 4, !tbaa !45
  %15 = getelementptr inbounds nuw i8, ptr %4, i64 52
  store i32 1, ptr %15, align 4, !tbaa !46
  %16 = getelementptr inbounds nuw i8, ptr %4, i64 56
  store i32 0, ptr %16, align 8, !tbaa !47
  %17 = getelementptr inbounds nuw i8, ptr %4, i64 128
  %18 = load ptr, ptr %17, align 8, !tbaa !37
  %19 = tail call i32 %18(ptr noundef %0, ptr noundef %1) #7
  %20 = icmp slt i32 %19, 0
  br i1 %20, label %110, label %21

21:                                               ; preds = %2
  %22 = getelementptr inbounds nuw i8, ptr %4, i64 16
  %23 = load i32, ptr %22, align 8, !tbaa !48
  %.not = icmp eq i32 %23, 0
  br i1 %.not, label %110, label %24

24:                                               ; preds = %21
  %25 = load i32, ptr %15, align 4, !tbaa !46
  %26 = load i32, ptr %10, align 8, !tbaa !44
  %27 = shl i32 %25, 3
  %28 = add i32 %26, %27
  %29 = sub i32 %23, %28
  %30 = and i32 %29, -2
  %31 = icmp slt i32 %29, 0
  br i1 %31, label %32, label %33

32:                                               ; preds = %24
  tail call void (ptr, i32, ptr, ...) @av_log(ptr noundef nonnull %0, i32 noundef 16, ptr noundef nonnull @.str.29) #7
  br label %110

33:                                               ; preds = %24
  %.not61 = icmp eq i32 %25, 0
  br i1 %.not61, label %spdif_put_16.exit70, label %34

34:                                               ; preds = %33
  %35 = getelementptr inbounds nuw i8, ptr %0, i64 32
  %36 = load ptr, ptr %35, align 8, !tbaa !49
  %37 = getelementptr inbounds nuw i8, ptr %4, i64 120
  %38 = load i32, ptr %37, align 8, !tbaa !50
  %39 = and i32 %38, 1
  %.not.i = icmp eq i32 %39, 0
  br i1 %.not.i, label %41, label %40

40:                                               ; preds = %34
  tail call void @avio_wb16(ptr noundef %36, i32 noundef 63602) #7
  br label %spdif_put_16.exit

41:                                               ; preds = %34
  tail call void @avio_wl16(ptr noundef %36, i32 noundef 63602) #7
  br label %spdif_put_16.exit

spdif_put_16.exit:                                ; preds = %40, %41
  %42 = load ptr, ptr %35, align 8, !tbaa !49
  %43 = load i32, ptr %37, align 8, !tbaa !50
  %44 = and i32 %43, 1
  %.not.i65 = icmp eq i32 %44, 0
  br i1 %.not.i65, label %46, label %45

45:                                               ; preds = %spdif_put_16.exit
  tail call void @avio_wb16(ptr noundef %42, i32 noundef 19999) #7
  br label %spdif_put_16.exit66

46:                                               ; preds = %spdif_put_16.exit
  tail call void @avio_wl16(ptr noundef %42, i32 noundef 19999) #7
  br label %spdif_put_16.exit66

spdif_put_16.exit66:                              ; preds = %45, %46
  %47 = load ptr, ptr %35, align 8, !tbaa !49
  %48 = getelementptr inbounds nuw i8, ptr %4, i64 8
  %49 = load i32, ptr %48, align 8, !tbaa !51
  %50 = load i32, ptr %37, align 8, !tbaa !50
  %51 = and i32 %50, 1
  %.not.i67 = icmp eq i32 %51, 0
  br i1 %.not.i67, label %53, label %52

52:                                               ; preds = %spdif_put_16.exit66
  tail call void @avio_wb16(ptr noundef %47, i32 noundef %49) #7
  br label %spdif_put_16.exit68

53:                                               ; preds = %spdif_put_16.exit66
  tail call void @avio_wl16(ptr noundef %47, i32 noundef %49) #7
  br label %spdif_put_16.exit68

spdif_put_16.exit68:                              ; preds = %52, %53
  %54 = load ptr, ptr %35, align 8, !tbaa !49
  %55 = load i32, ptr %14, align 4, !tbaa !45
  %56 = load i32, ptr %37, align 8, !tbaa !50
  %57 = and i32 %56, 1
  %.not.i69 = icmp eq i32 %57, 0
  br i1 %.not.i69, label %59, label %58

58:                                               ; preds = %spdif_put_16.exit68
  tail call void @avio_wb16(ptr noundef %54, i32 noundef %55) #7
  br label %spdif_put_16.exit70

59:                                               ; preds = %spdif_put_16.exit68
  tail call void @avio_wl16(ptr noundef %54, i32 noundef %55) #7
  br label %spdif_put_16.exit70

spdif_put_16.exit70:                              ; preds = %59, %58, %33
  %60 = load i32, ptr %16, align 8, !tbaa !47
  %61 = getelementptr inbounds nuw i8, ptr %4, i64 120
  %62 = load i32, ptr %61, align 8, !tbaa !50
  %63 = and i32 %62, 1
  %.not62 = icmp eq i32 %60, %63
  br i1 %.not62, label %70, label %64

64:                                               ; preds = %spdif_put_16.exit70
  %65 = getelementptr inbounds nuw i8, ptr %0, i64 32
  %66 = load ptr, ptr %65, align 8, !tbaa !49
  %67 = load ptr, ptr %7, align 8, !tbaa !42
  %68 = load i32, ptr %10, align 8, !tbaa !44
  %69 = and i32 %68, -2
  tail call void @avio_write(ptr noundef %66, ptr noundef %67, i32 noundef %69) #7
  br label %86

70:                                               ; preds = %spdif_put_16.exit70
  %71 = getelementptr inbounds nuw i8, ptr %4, i64 24
  %72 = getelementptr inbounds nuw i8, ptr %4, i64 32
  %73 = load i32, ptr %10, align 8, !tbaa !44
  %74 = add nsw i32 %73, 64
  %75 = sext i32 %74 to i64
  tail call void @av_fast_malloc(ptr noundef nonnull %71, ptr noundef nonnull %72, i64 noundef %75) #7
  %76 = load ptr, ptr %71, align 8, !tbaa !52
  %.not63 = icmp eq ptr %76, null
  br i1 %.not63, label %110, label %77

77:                                               ; preds = %70
  %78 = load ptr, ptr %7, align 8, !tbaa !42
  %79 = load i32, ptr %10, align 8, !tbaa !44
  %80 = ashr i32 %79, 1
  tail call void @ff_spdif_bswap_buf16(ptr noundef nonnull %76, ptr noundef %78, i32 noundef %80) #7
  %81 = getelementptr inbounds nuw i8, ptr %0, i64 32
  %82 = load ptr, ptr %81, align 8, !tbaa !49
  %83 = load ptr, ptr %71, align 8, !tbaa !52
  %84 = load i32, ptr %10, align 8, !tbaa !44
  %85 = and i32 %84, -2
  tail call void @avio_write(ptr noundef %82, ptr noundef %83, i32 noundef %85) #7
  br label %86

86:                                               ; preds = %77, %64
  %87 = load i32, ptr %10, align 8, !tbaa !44
  %88 = and i32 %87, 1
  %.not64 = icmp eq i32 %88, 0
  br i1 %.not64, label %spdif_put_16.exit72, label %89

89:                                               ; preds = %86
  %90 = getelementptr inbounds nuw i8, ptr %0, i64 32
  %91 = load ptr, ptr %90, align 8, !tbaa !49
  %92 = load ptr, ptr %7, align 8, !tbaa !42
  %93 = sext i32 %87 to i64
  %94 = getelementptr i8, ptr %92, i64 %93
  %95 = getelementptr i8, ptr %94, i64 -1
  %96 = load i8, ptr %95, align 1, !tbaa !53
  %97 = zext i8 %96 to i32
  %98 = shl nuw nsw i32 %97, 8
  %99 = load i32, ptr %61, align 8, !tbaa !50
  %100 = and i32 %99, 1
  %.not.i71 = icmp eq i32 %100, 0
  br i1 %.not.i71, label %102, label %101

101:                                              ; preds = %89
  tail call void @avio_wb16(ptr noundef %91, i32 noundef %98) #7
  br label %spdif_put_16.exit72

102:                                              ; preds = %89
  tail call void @avio_wl16(ptr noundef %91, i32 noundef %98) #7
  br label %spdif_put_16.exit72

spdif_put_16.exit72:                              ; preds = %102, %101, %86
  %103 = getelementptr inbounds nuw i8, ptr %0, i64 32
  %104 = load ptr, ptr %103, align 8, !tbaa !49
  %105 = zext nneg i32 %30 to i64
  tail call void @ffio_fill(ptr noundef %104, i32 noundef 0, i64 noundef %105) #7
  %106 = getelementptr inbounds nuw i8, ptr %4, i64 8
  %107 = load i32, ptr %106, align 8, !tbaa !51
  %108 = load i32, ptr %10, align 8, !tbaa !44
  %109 = load i32, ptr %22, align 8, !tbaa !48
  tail call void (ptr, i32, ptr, ...) @av_log(ptr noundef nonnull %0, i32 noundef 48, ptr noundef nonnull @.str.30, i32 noundef %107, i32 noundef %108, i32 noundef %109) #7
  br label %110

110:                                              ; preds = %70, %21, %2, %spdif_put_16.exit72, %32
  %.0 = phi i32 [ -22, %32 ], [ 0, %spdif_put_16.exit72 ], [ %19, %2 ], [ 0, %21 ], [ -12, %70 ]
  ret i32 %.0
}